target datalayout = "e-m:e-p270:32:32-p271:32:32-p272:64:64-i64:64-i128:128-f80:128-n8:16:32:64-S128"
target triple = "x86_64-pc-linux-gnu"

@.str.57 = private unnamed_addr constant [15 x i8] c"value expected\00", align 1

; Function Attrs: nounwind uwtable
define internal i32 @luaB_type(ptr noundef %0) #0 {
  %2 = alloca ptr, align 8
  %3 = alloca i32, align 4
  store ptr %0, ptr %2, align 8, !tbaa !4
  call void @llvm.lifetime.start.p0(i64 4, ptr %3) #6
  %4 = load ptr, ptr %2, align 8, !tbaa !4
  %5 = call i32 @lua_type(ptr noundef %4, i32 noundef 1)
  store i32 %5, ptr %3, align 4, !tbaa !10
  %6 = load i32, ptr %3, align 4, !tbaa !10
  %7 = icmp ne i32 %6, -1
  %8 = zext i1 %7 to i32
  %9 = icmp ne i32 %8, 0
  %10 = zext i1 %9 to i32
  %11 = sext i32 %10 to i64
  %12 = call i64 @llvm.expect.i64(i64 %11, i64 1)
  %13 = icmp ne i64 %12, 0
  br i1 %13, label %17, label %14

14:                                               ; preds = %1
  %15 = load ptr, ptr %2, align 8, !tbaa !4
  %16 = call i32 @luaL_argerror(ptr noundef %15, i32 noundef 1, ptr noundef @.str.57)
  br label %17

17:                                               ; preds = %14, %1
  %18 = load ptr, ptr %2, align 8, !tbaa !4
  %19 = load ptr, ptr %2, align 8, !tbaa !4
  %20 = load i32, ptr %3, align 4, !tbaa !10
  %21 = call ptr @lua_typename(ptr noundef %19, i32 noundef %20)
  %22 = call ptr @lua_pushstring(ptr noundef %18, ptr noundef %21)
  call void @llvm.lifetime.end.p0(i64 4, ptr %3) #6
  ret i32 1
}