; Function Attrs: nounwind uwtable
define internal noundef i32 @luaB_type(ptr noundef %0) #0 {
  %2 = tail call i32 @lua_type(ptr noundef %0, i32 noundef 1) #9
  %.not = icmp eq i32 %2, -1
  br i1 %.not, label %3, label %5, !prof !4

3:                                                ; preds = %1
  %4 = tail call i32 @luaL_argerror(ptr noundef %0, i32 noundef 1, ptr noundef nonnull @.str.57) #9
  br label %5

5:                                                ; preds = %3, %1
  %6 = tail call ptr @lua_typename(ptr noundef %0, i32 noundef %2) #9
  %7 = tail call ptr @lua_pushstring(ptr noundef %0, ptr noundef %6) #9
  ret i32 1
}